; Function Attrs: uwtable
define void @_ZThn16_NK10FilterDirt10filterInfoEi(ptr dead_on_unwind noalias nocapture writable writeonly sret(%class.QString) align 8 %0, ptr nocapture noundef readnone %1, i32 noundef %2) unnamed_addr #12 align 2 {
  tail call void @llvm.experimental.noalias.scope.decl(metadata !24)
  switch i32 %2, label %8 [
    i32 0, label %4
    i32 1, label %6
  ]

4:                                                ; preds = %3
  %5 = tail call noundef ptr @_ZN7QString16fromAscii_helperEPKci(ptr noundef nonnull @.str.12, i32 noundef 95), !noalias !24
  br label %_ZNK10FilterDirt10filterInfoEi.exit

6:                                                ; preds = %3
  %7 = tail call noundef ptr @_ZN7QString16fromAscii_helperEPKci(ptr noundef nonnull @.str.13, i32 noundef 50), !noalias !24
  br label %_ZNK10FilterDirt10filterInfoEi.exit

8:                                                ; preds = %3
  %9 = tail call noundef ptr @_ZN7QString16fromAscii_helperEPKci(ptr noundef nonnull @.str.14, i32 noundef 5), !noalias !24
  br label %_ZNK10FilterDirt10filterInfoEi.exit

_ZNK10FilterDirt10filterInfoEi.exit:              ; preds = %4, %6, %8
  %.sink.i = phi ptr [ %9, %8 ], [ %7, %6 ], [ %5, %4 ]
  store ptr %.sink.i, ptr %0, align 8, !alias.scope !24
  ret void
}